target datalayout = "e-m:e-p270:32:32-p271:32:32-p272:64:64-i64:64-i128:128-f80:128-n8:16:32:64-S128"
target triple = "x86_64-pc-linux-gnu"

%struct.FT_MemoryRec_ = type { ptr, ptr, ptr, ptr }
%struct.FT_StreamRec_ = type { ptr, i64, i64, %union.FT_StreamDesc_, %union.FT_StreamDesc_, ptr, ptr, ptr, ptr, ptr }
%union.FT_StreamDesc_ = type { i64 }

; Function Attrs: nounwind uwtable
define hidden void @ft_mem_free(ptr noundef %0, ptr noundef %1) #0 {
  %3 = alloca ptr, align 8
  %4 = alloca ptr, align 8
  store ptr %0, ptr %3, align 8, !tbaa !185
  store ptr %1, ptr %4, align 8, !tbaa !41
  %5 = load ptr, ptr %4, align 8, !tbaa !41
  %6 = icmp ne ptr %5, null
  br i1 %6, label %7, label %13

7:                                                ; preds = %2
  %8 = load ptr, ptr %3, align 8, !tbaa !185
  %9 = getelementptr inbounds nuw %struct.FT_MemoryRec_, ptr %8, i32 0, i32 2
  %10 = load ptr, ptr %9, align 8, !tbaa !209
  %11 = load ptr, ptr %3, align 8, !tbaa !185
  %12 = load ptr, ptr %4, align 8, !tbaa !41
  call void %10(ptr noundef %11, ptr noundef %12)
  br label %13

13:                                               ; preds = %7, %2
  ret void
}

; Function Attrs: nounwind uwtable
define internal void @memory_stream_close(ptr noundef %0) #0 {
  %2 = alloca ptr, align 8
  %3 = alloca ptr, align 8
  store ptr %0, ptr %2, align 8, !tbaa !268
  call void @llvm.lifetime.start.p0(i64 8, ptr %3) #10
  %4 = load ptr, ptr %2, align 8, !tbaa !268
  %5 = getelementptr inbounds nuw %struct.FT_StreamRec_, ptr %4, i32 0, i32 3
  %6 = load ptr, ptr %5, align 8, !tbaa !64
  store ptr %6, ptr %3, align 8, !tbaa !185
  br label %7

7:                                                ; preds = %1
  %8 = load ptr, ptr %3, align 8, !tbaa !185
  %9 = load ptr, ptr %2, align 8, !tbaa !268
  %10 = getelementptr inbounds nuw %struct.FT_StreamRec_, ptr %9, i32 0, i32 0
  %11 = load ptr, ptr %10, align 8, !tbaa !279
  call void @ft_mem_free(ptr noundef %8, ptr noundef %11)
  %12 = load ptr, ptr %2, align 8, !tbaa !268
  %13 = getelementptr inbounds nuw %struct.FT_StreamRec_, ptr %12, i32 0, i32 0
  store ptr null, ptr %13, align 8, !tbaa !279
  br label %14

14:                                               ; preds = %7
  br label %15

15:                                               ; preds = %14
  %16 = load ptr, ptr %2, align 8, !tbaa !268
  %17 = getelementptr inbounds nuw %struct.FT_StreamRec_, ptr %16, i32 0, i32 1
  store i64 0, ptr %17, align 8, !tbaa !280
  %18 = load ptr, ptr %2, align 8, !tbaa !268
  %19 = getelementptr inbounds nuw %struct.FT_StreamRec_, ptr %18, i32 0, i32 6
  store ptr null, ptr %19, align 8, !tbaa !284
  br label %20

20:                                               ; preds = %15
  %21 = load ptr, ptr %3, align 8, !tbaa !185
  %22 = load ptr, ptr %2, align 8, !tbaa !268
  call void @ft_mem_free(ptr noundef %21, ptr noundef %22)
  store ptr null, ptr %2, align 8, !tbaa !268
  br label %23

23:                                               ; preds = %20
  br label %24

24:                                               ; preds = %23
  call void @llvm.lifetime.end.p0(i64 8, ptr %3) #10
  ret void
}