; Function Attrs: nounwind uwtable
define internal void @memory_stream_close(ptr noundef initializes((8, 16), (48, 56)) %0) #0 {
  %2 = getelementptr inbounds nuw i8, ptr %0, i64 24
  %3 = load ptr, ptr %2, align 8, !tbaa !222
  %4 = load ptr, ptr %0, align 8, !tbaa !247
  %.not.i = icmp eq ptr %4, null
  br i1 %.not.i, label %ft_mem_free.exit9, label %5

5:                                                ; preds = %1
  %6 = getelementptr inbounds nuw i8, ptr %3, i64 16
  %7 = load ptr, ptr %6, align 8, !tbaa !61
  tail call void %7(ptr noundef %3, ptr noundef nonnull %4) #34
  br label %ft_mem_free.exit9

ft_mem_free.exit9:                                ; preds = %1, %5
  %8 = getelementptr inbounds nuw i8, ptr %0, i64 48
  store ptr null, ptr %8, align 8, !tbaa !254
  %9 = getelementptr inbounds nuw i8, ptr %3, i64 16
  tail call void @llvm.memset.p0.i64(ptr noundef nonnull align 8 dereferenceable(16) %0, i8 0, i64 16, i1 false)
  %10 = load ptr, ptr %9, align 8, !tbaa !61
  tail call void %10(ptr noundef %3, ptr noundef nonnull %0) #34
  ret void
}